Certificate:
    Data:
        Version: 3 (0x2)
        Serial Number: 1 (0x1)
        Signature Algorithm: sha256WithRSAEncryption
        Issuer: C=IT, ST=Piedmont, L=Turin, O=secMQTT&Co, OU=Server Research Department, CN=Test CA/emailAddress=s276474@studenti.polito.it
        Validity
            Not Before: Nov 18 17:24:28 2021 GMT
            Not After : Nov 18 17:24:28 2022 GMT
        Subject: C=IT, ST=Piedmont, L=Turin, O=secMQTT&Co, CN=165.22.119.197
        Subject Public Key Info:
            Public Key Algorithm: rsaEncryption
                RSA Public-Key: (4096 bit)
                Modulus:
                    00:a9:f1:cc:13:8d:f2:75:ff:cc:56:0f:77:2c:9f:
                    9e:83:9d:3a:56:aa:a1:a5:f3:87:ba:23:01:a9:c7:
                    03:71:ec:36:c2:71:94:2a:a5:05:90:e2:21:a1:90:
                    bf:db:94:25:ef:9c:d9:37:c1:ba:95:7e:2c:73:23:
                    03:4b:69:2d:01:4e:97:9c:76:8a:b9:ca:6b:a1:c8:
                    37:4f:c0:38:db:be:e6:11:3c:c1:5f:9d:b6:de:2c:
                    29:78:5b:04:ac:1c:2e:63:de:0e:bb:d8:cd:0e:95:
                    e8:b0:bc:28:13:06:1e:d2:9e:e1:9e:2b:01:43:8c:
                    d4:15:05:eb:67:bc:dc:1f:f1:d4:78:27:95:19:b3:
                    c1:c9:10:2b:bd:c0:bf:2d:af:b3:29:8f:96:0b:fc:
                    fe:fe:da:92:f4:07:e5:5e:aa:a3:b3:74:43:5c:0f:
                    a2:4f:cb:06:70:13:b7:30:29:43:45:60:e6:13:af:
                    ee:58:b7:7f:4c:f8:0b:eb:cc:48:7d:80:d7:43:da:
                    51:63:e3:c4:a6:e2:2e:ed:8d:04:43:1b:c6:c9:b7:
                    1b:93:48:fc:8f:44:83:fa:1a:18:99:88:ce:ff:95:
                    3d:b8:9a:ab:ef:7d:66:51:70:da:8c:0e:92:92:c5:
                    6d:fd:c1:84:f2:c5:52:2b:91:67:f7:6f:c8:ac:4a:
                    dc:3e:3f:46:05:f9:6f:eb:8a:37:7b:22:cd:6f:1a:
                    65:6a:0b:84:73:cf:65:1d:a0:cc:cf:6f:c3:ab:95:
                    97:19:96:f2:fb:a8:ba:a2:36:49:45:f9:6e:3b:a6:
                    b7:70:1b:12:71:52:ec:73:56:e5:73:35:75:b9:57:
                    91:00:19:09:f2:d4:82:ef:f8:5d:4c:e9:18:bf:da:
                    0c:ff:76:f2:54:c6:91:73:6d:49:a6:83:2c:a2:a1:
                    50:ab:d6:01:c2:f4:31:54:b5:c0:ac:68:68:b4:8a:
                    ab:8f:41:56:bc:26:c3:ec:8a:93:70:6a:c6:0b:62:
                    49:11:21:19:56:7f:b4:84:ee:8a:f1:62:e2:5c:22:
                    1c:14:2b:42:8a:b3:d9:ae:ee:65:42:2d:14:f0:ca:
                    20:b5:83:ba:80:f5:4b:7c:37:b5:83:7f:e3:67:22:
                    ee:9d:4e:25:71:6f:1d:7a:f7:e5:61:27:a7:d5:0e:
                    0d:b8:3f:7c:c2:f0:85:ca:b4:58:df:01:e0:3c:b4:
                    f7:b8:c0:69:9a:00:1d:5e:30:6c:3b:ee:2b:54:85:
                    13:37:99:f3:af:7e:1d:ee:51:16:2f:19:77:33:a8:
                    7d:06:33:d8:c4:a9:d8:7e:27:47:e8:69:0b:ac:8c:
                    5e:27:f7:02:36:63:d8:a5:36:8d:2d:b6:51:27:61:
                    38:f9:e7
                Exponent: 65537 (0x10001)
        X509v3 extensions:
            X509v3 Subject Key Identifier: 
                6D:62:58:4E:DA:6B:31:62:9A:B8:4B:C6:DF:CE:C2:EE:69:EB:D6:42
            X509v3 Authority Key Identifier: 
                keyid:4B:61:B8:8E:AA:95:EA:00:B3:9B:E0:81:D8:20:F4:F2:E4:27:39:A0

            X509v3 Basic Constraints: 
                CA:FALSE
            X509v3 Key Usage: 
                Digital Signature, Key Encipherment
            X509v3 Subject Alternative Name: 
                DNS:example.com, DNS:www.example.com, DNS:mail.example.com, DNS:ftp.example.com, IP Address:165.22.119.197
            Netscape Comment: 
                OpenSSL Generated Certificate
    Signature Algorithm: sha256WithRSAEncryption
         2f:a1:26:52:96:7a:c0:0f:7b:09:f4:48:c2:92:d9:c5:e1:54:
         36:72:10:25:6b:45:af:e9:14:c8:57:b8:c6:e7:68:93:7c:57:
         a2:9b:45:d3:53:53:a6:42:e1:87:7f:25:73:c5:c0:82:30:d1:
         27:c3:15:9e:f2:e0:d8:51:0d:f9:ba:60:10:2d:64:a3:88:73:
         00:d7:86:61:4f:d0:61:7e:13:52:ad:0d:3e:40:d6:15:e1:fd:
         dd:38:a4:58:8c:19:a1:45:4a:eb:04:0c:9b:cb:a8:b7:d5:6e:
         19:b0:96:18:7c:76:71:43:3c:5e:b2:42:94:8b:51:c9:5d:c9:
         aa:0b:ee:94:46:7b:82:6f:80:f2:0a:6e:0f:52:f7:5a:00:79:
         6d:43:99:35:c6:05:51:4b:0c:be:16:87:6a:e7:f5:54:71:42:
         e1:f2:e4:0f:e7:7f:68:48:eb:5f:b2:88:3b:9c:cb:96:67:50:
         58:1c:b2:ff:fa:ac:50:8e:1c:0b:19:87:57:33:34:93:8c:64:
         15:ca:32:bf:f0:61:e9:6f:91:5c:7a:0c:3e:6e:f5:a8:33:36:
         9f:84:4a:a6:ca:d1:97:96:75:77:80:c5:db:ca:47:55:0e:94:
         dd:01:f3:35:68:b0:10:f3:2d:4f:35:e6:ef:0a:bf:00:52:13:
         83:a0:9f:ec:bf:aa:df:e2:ff:9d:06:95:2c:af:91:24:16:09:
         2d:4a:f5:5c:74:1a:b0:81:67:6c:a2:7c:6f:1b:2e:0d:9e:36:
         30:00:70:bb:37:6f:64:e0:f2:7c:98:61:7e:c6:95:7a:49:9d:
         ce:01:e2:f6:59:a9:bb:37:bd:1b:5b:79:18:be:d2:65:14:35:
         b1:14:1a:5d:b6:92:fd:6f:cd:f5:18:e1:eb:10:64:d8:59:c3:
         7e:ea:32:85:d8:92:fd:e8:9f:76:42:82:4b:1d:95:8b:f1:d4:
         47:8d:fe:89:23:b4:74:3a:e1:fe:7e:14:df:38:93:8b:77:72:
         bf:22:69:37:fd:c7:a7:73:45:60:17:9f:ad:7d:1d:72:79:31:
         1b:6e:02:cc:b7:b2:ac:1d:a6:0a:5e:18:c9:4b:45:d6:f8:7b:
         9f:79:7a:b6:fa:bc:81:c3:2d:94:22:6e:f3:bb:4e:45:d5:7b:
         c4:61:62:b2:74:78:a2:26:33:29:0d:d8:e5:ad:83:6f:33:f1:
         e9:ab:ae:ee:52:a9:df:28:8a:8e:33:82:e6:5c:3e:b8:69:8e:
         19:f5:33:67:ad:63:9e:ae:e7:bd:c9:37:27:8b:d8:41:da:f3:
         94:c8:46:59:e1:0d:fa:cd:9d:92:3f:8c:9b:3c:42:b9:a9:c4:
         da:80:0e:ea:aa:25:50:22
-----BEGIN CERTIFICATE-----
MIIGXTCCBEWgAwIBAgIBATANBgkqhkiG9w0BAQsFADCBpzELMAkGA1UEBhMCSVQx
ETAPBgNVBAgMCFBpZWRtb250MQ4wDAYDVQQHDAVUdXJpbjETMBEGA1UECgwKc2Vj
TVFUVCZDbzEjMCEGA1UECwwaU2VydmVyIFJlc2VhcmNoIERlcGFydG1lbnQxEDAO
BgNVBAMMB1Rlc3QgQ0ExKTAnBgkqhkiG9w0BCQEWGnMyNzY0NzRAc3R1ZGVudGku
cG9saXRvLml0MB4XDTIxMTExODE3MjQyOFoXDTIyMTExODE3MjQyOFowXjELMAkG
A1UEBhMCSVQxETAPBgNVBAgMCFBpZWRtb250MQ4wDAYDVQQHDAVUdXJpbjETMBEG
A1UECgwKc2VjTVFUVCZDbzEXMBUGA1UEAwwOMTY1LjIyLjExOS4xOTcwggIiMA0G
CSqGSIb3DQEBAQUAA4ICDwAwggIKAoICAQCp8cwTjfJ1/8xWD3csn56DnTpWqqGl
84e6IwGpxwNx7DbCcZQqpQWQ4iGhkL/blCXvnNk3wbqVfixzIwNLaS0BTpecdoq5
ymuhyDdPwDjbvuYRPMFfnbbeLCl4WwSsHC5j3g672M0OleiwvCgTBh7SnuGeKwFD
jNQVBetnvNwf8dR4J5UZs8HJECu9wL8tr7Mpj5YL/P7+2pL0B+VeqqOzdENcD6JP
ywZwE7cwKUNFYOYTr+5Yt39M+AvrzEh9gNdD2lFj48Sm4i7tjQRDG8bJtxuTSPyP
RIP6GhiZiM7/lT24mqvvfWZRcNqMDpKSxW39wYTyxVIrkWf3b8isStw+P0YF+W/r
ijd7Is1vGmVqC4Rzz2UdoMzPb8OrlZcZlvL7qLqiNklF+W47prdwGxJxUuxzVuVz
NXW5V5EAGQny1ILv+F1M6Ri/2gz/dvJUxpFzbUmmgyyioVCr1gHC9DFUtcCsaGi0
iquPQVa8JsPsipNwasYLYkkRIRlWf7SE7orxYuJcIhwUK0KKs9mu7mVCLRTwyiC1
g7qA9Ut8N7WDf+NnIu6dTiVxbx169+VhJ6fVDg24P3zC8IXKtFjfAeA8tPe4wGma
AB1eMGw77itUhRM3mfOvfh3uURYvGXczqH0GM9jEqdh+J0foaQusjF4n9wI2Y9il
No0ttlEnYTj55wIDAQABo4HbMIHYMB0GA1UdDgQWBBRtYlhO2msxYpq4S8bfzsLu
aevWQjAfBgNVHSMEGDAWgBRLYbiOqpXqALOb4IHYIPTy5Cc5oDAJBgNVHRMEAjAA
MAsGA1UdDwQEAwIFoDBQBgNVHREESTBHggtleGFtcGxlLmNvbYIPd3d3LmV4YW1w
bGUuY29tghBtYWlsLmV4YW1wbGUuY29tgg9mdHAuZXhhbXBsZS5jb22HBKUWd8Uw
LAYJYIZIAYb4QgENBB8WHU9wZW5TU0wgR2VuZXJhdGVkIENlcnRpZmljYXRlMA0G
CSqGSIb3DQEBCwUAA4ICAQAvoSZSlnrAD3sJ9EjCktnF4VQ2chAla0Wv6RTIV7jG
52iTfFeim0XTU1OmQuGHfyVzxcCCMNEnwxWe8uDYUQ35umAQLWSjiHMA14ZhT9Bh
fhNSrQ0+QNYV4f3dOKRYjBmhRUrrBAyby6i31W4ZsJYYfHZxQzxeskKUi1HJXcmq
C+6URnuCb4DyCm4PUvdaAHltQ5k1xgVRSwy+Fodq5/VUcULh8uQP539oSOtfsog7
nMuWZ1BYHLL/+qxQjhwLGYdXMzSTjGQVyjK/8GHpb5Fcegw+bvWoMzafhEqmytGX
lnV3gMXbykdVDpTdAfM1aLAQ8y1PNebvCr8AUhODoJ/sv6rf4v+dBpUsr5EkFgkt
SvVcdBqwgWdsonxvGy4NnjYwAHC7N29k4PJ8mGF+xpV6SZ3OAeL2Wam7N70bW3kY
vtJlFDWxFBpdtpL9b831GOHrEGTYWcN+6jKF2JL96J92QoJLHZWL8dRHjf6JI7R0
OuH+fhTfOJOLd3K/Imk3/cenc0VgF5+tfR1yeTEbbgLMt7KsHaYKXhjJS0XW+Huf
eXq2+ryBwy2UIm7zu05F1XvEYWKydHiiJjMpDdjlrYNvM/Hpq67uUqnfKIqOM4Lm
XD64aY4Z9TNnrWOerue9yTcni9hB2vOUyEZZ4Q36zZ2SP4ybPEK5qcTagA7qqiVQ
Ig==
-----END CERTIFICATE-----
